(isurveyInfoPickler
surveyInformation
p0
(dp1
S'obsSF_pickle_path'
p2
S'../../SFgithub/SFdata/APOGEETest/APOGEETest_obsSF.pickle'
p3
sS'data_path'
p4
S'/home/andy/Documents/Research/SFdata'
p5
sS'obsSF_pickle_fname'
p6
S'/APOGEETest_obsSF.pickle'
p7
sS'iso_pickle_path'
p8
S'../../SFgithub/SFdata/evoTracks/isochrone_distributions_resampled4.pickle'
p9
sS'overlap_fname'
p10
S'/APOGEE_fieldoverlapdatabase.csv'
p11
sS'photo_path'
p12
S'/home/andy/Documents/Research/SFdata/APOGEETest'
p13
sS'spectro_folder'
p14
S'../../SFgithub/SFdata/APOGEETest'
p15
sS'field_path'
p16
S'../../SFgithub/SFdata/APOGEETest/APOGEETest_fieldinfo.csv'
p17
sS'spectro_coords'
p18
(lp19
S'# location_id'
p20
aS'ra'
p21
aS'dec'
p22
aS'j'
p23
aS'k'
p24
aS'h'
p25
asS'photo_coords'
p26
(lp27
S'RA'
p28
aS'Dec'
p29
ag23
ag25
ag24
asS'spectro_fname'
p30
S'/TGAS_APOGEE_supp_keplercannon_masses_ages.csv'
p31
sS'photo_tag'
p32
S'.csv'
p33
sS'sf_pickle_fname'
p34
S'/APOGEETest_SF.pickle'
p35
sS'photo_pickle_path'
p36
S'../../SFgithub/SFdata/APOGEETest/APOGEETest_full.pickle'
p37
sS'field_SA'
p38
F7.0
sS'spectro_path'
p39
S'../../SFgithub/SFdata/APOGEETest/TGAS_APOGEE_supp_keplercannon_masses_ages.csv'
p40
sS'iso_pickle_file'
p41
S'/evoTracks/isochrone_distributions_resampled4.pickle'
p42
sS'spectro_pickle_path'
p43
S'../../SFgithub/SFdata/APOGEETest/APOGEETest_survey.pickle'
p44
sS'overlap_path'
p45
S'../../SFgithub/SFdata/APOGEETest/APOGEE_fieldoverlapdatabase.csv'
p46
sS'fieldlabel_type'
p47
cnumpy
float64
p48
sS'spectro'
p49
S'/APOGEETest'
p50
sS'sf_pickle_path'
p51
S'../../SFgithub/SFdata/APOGEETest/APOGEETest_SF.pickle'
p52
sS'photo_pickle_fname'
p53
S'/APOGEETest_full.pickle'
p54
sS'field_fname'
p55
S'/APOGEETest_fieldinfo.csv'
p56
sS'spectro_pickle_fname'
p57
S'/APOGEETest_survey.pickle'
p58
sS'field_coords'
p59
((lp60
S'FieldName'
p61
ag28
ag29
aS'Hliml'
p62
aS'Hlimu'
p63
aS'JKliml'
p64
aS'JKlimu'
p65
aS'Equatorial'
p66
tp67
sb.