(isurveyInfoPickler
surveyInformation
p0
(dp1
S'obsSF_pickle_path'
p2
S'../../SFgithub/SFdata/Galaxia3/Galaxia3_obsSF.pickle'
p3
sS'data_path'
p4
S'/home/andy/Documents/Research/InstallTests/SFdata'
p5
sS'obsSF_pickle_fname'
p6
S'/Galaxia3_obsSF.pickle'
p7
sS'iso_pickle_path'
p8
S'../../SFgithub/SFdata/evoTracks/isochrone_distributions_resampled4.pickle'
p9
sS'overlap_fname'
p10
S'/Galaxia3_fieldoverlapdatabase'
p11
sS'photo_path'
p12
S'/home/andy/Documents/Research/InstallTests/SFdata/Galaxia'
p13
sS'spectro_folder'
p14
S'../../SFgithub/SFdata/Galaxia3'
p15
sS'field_path'
p16
S'../../SFgithub/SFdata/Galaxia3/Galaxia3_fieldinfo.csv'
p17
sS'spectro_coords'
p18
(lp19
S'fieldid'
p20
aS'glon'
p21
aS'glat'
p22
aS'JappIso'
p23
aS'KappIso'
p24
aS'HappIso'
p25
asS'photo_coords'
p26
(lp27
g21
ag22
ag23
ag24
ag25
asS'spectro_fname'
p28
S'/Galaxia3_survey.csv'
p29
sS'photo_tag'
p30
S'.csv'
p31
sS'sf_pickle_fname'
p32
S'/Galaxia3_SF.pickle'
p33
sS'photo_pickle_path'
p34
S'../../SFgithub/SFdata/Galaxia3/Galaxia3_full.pickle'
p35
sS'field_SA'
p36
F12.565
sS'spectro_path'
p37
S'../../SFgithub/SFdata/Galaxia3/Galaxia3_survey.csv'
p38
sS'iso_pickle_file'
p39
S'/evoTracks/isochrone_distributions_resampled4.pickle'
p40
sS'spectro_pickle_path'
p41
S'../../SFgithub/SFdata/Galaxia3/Galaxia3_survey.pickle'
p42
sS'overlap_path'
p43
S'../../SFgithub/SFdata/Galaxia3/Galaxia3_fieldoverlapdatabase'
p44
sS'fieldlabel_type'
p45
cnumpy
float64
p46
sS'spectro'
p47
S'/Galaxia3'
p48
sS'sf_pickle_path'
p49
S'../../SFgithub/SFdata/Galaxia3/Galaxia3_SF.pickle'
p50
sS'photo_pickle_fname'
p51
S'/Galaxia3_full.pickle'
p52
sS'field_fname'
p53
S'/Galaxia3_fieldinfo.csv'
p54
sS'spectro_pickle_fname'
p55
S'/Galaxia3_survey.pickle'
p56
sS'field_coords'
p57
((lp58
S'fieldID'
p59
ag21
ag22
aS'hmin'
p60
aS'hmax'
p61
aS'cmin'
p62
aS'cmax'
p63
aS'Galactic'
p64
tp65
sb.