(isurveyInfoPickler
surveyInformation
p0
(dp1
S'obsSF_pickle_path'
p2
S'../../SFgithub/SFdata/RAVE/RAVE_obsSF.pickle'
p3
sS'data_path'
p4
S'/home/andy/Documents/Research/SFdata'
p5
sS'obsSF_pickle_fname'
p6
S'/RAVE_obsSF.pickle'
p7
sS'iso_pickle_path'
p8
S'../../SFgithub/SFdata/evoTracks/isochrone_distributions_resampled.pickle'
p9
sS'photo_path'
p10
S'/home/andy/Documents/Research/SFdata/RAVE'
p11
sS'spectro_folder'
p12
S'../../SFgithub/SFdata/RAVE'
p13
sS'field_path'
p14
S'../../SFgithub/SFdata/RAVE/RAVE_FIELDS_wFieldIDs.csv'
p15
sS'spectro_coords'
p16
(lp17
S'FieldName'
p18
aS'RA_TGAS'
p19
aS'DE_TGAS'
p20
aS'Jmag_2MASS'
p21
aS'Kmag_2MASS'
p22
aS'Hmag_2MASS'
p23
asS'photo_coords'
p24
(lp25
S'RA'
p26
aS'Dec'
p27
aS'j'
p28
aS'h'
p29
aS'k'
p30
asS'spectro_fname'
p31
S'/RAVE_wPlateIDs.csv'
p32
sS'photo_tag'
p33
S'.csv'
p34
sS'sf_pickle_fname'
p35
S'/2massdata_RAVEfields.pickle'
p36
sS'photo_pickle_path'
p37
S'../../SFgithub/SFdata/RAVE/2massdata_RAVEfields.pickle'
p38
sS'field_SA'
p39
F28.3
sS'spectro_path'
p40
S'../../SFgithub/SFdata/RAVE/RAVE_wPlateIDs.csv'
p41
sS'iso_pickle_file'
p42
S'/evoTracks/isochrone_distributions_resampled.pickle'
p43
sS'spectro_pickle_path'
p44
S'../../SFgithub/SFdata/RAVE/surveydata_RAVEfields.pickle'
p45
sS'fieldlabel_type'
p46
c__builtin__
str
p47
sS'spectro'
p48
S'/RAVE'
p49
sS'sf_pickle_path'
p50
S'../../SFgithub/SFdata/RAVE/2massdata_RAVEfields.pickle'
p51
sS'photo_pickle_fname'
p52
S'/2massdata_RAVEfields.pickle'
p53
sS'field_fname'
p54
S'/RAVE_FIELDS_wFieldIDs.csv'
p55
sS'spectro_pickle_fname'
p56
S'/surveydata_RAVEfields.pickle'
p57
sS'field_coords'
p58
((lp59
S'RAVE_FIELD'
p60
aS'RAdeg'
p61
aS'DEdeg'
p62
aS'Equatorial'
p63
tp64
sb.